target datalayout = "e-m:e-p270:32:32-p271:32:32-p272:64:64-i64:64-i128:128-f80:128-n8:16:32:64-S128"
target triple = "x86_64-pc-linux-gnu"

%struct.maintenance_task = type { ptr, ptr, ptr, i8, i32, i32 }

@.str.75 = private unnamed_addr constant [1 x i8] zeroinitializer, align 1
@git_gettext_enabled = external global i32, align 4
@.str.118 = private unnamed_addr constant [13 x i8] c"builtin/gc.c\00", align 1
@.str.119 = private unnamed_addr constant [41 x i8] c"option callback does not expect negation\00", align 1
@.str.120 = private unnamed_addr constant [25 x i8] c"'%s' is not a valid task\00", align 1
@.str.121 = private unnamed_addr constant [44 x i8] c"task '%s' cannot be selected multiple times\00", align 1

; Function Attrs: inlinehint nounwind uwtable
define internal i32 @const_error() #6 {
  ret i32 -1
}

; Function Attrs: inlinehint nounwind uwtable
define internal ptr @_(ptr noundef %0) #6 {
  %2 = alloca ptr, align 8
  %3 = alloca ptr, align 8
  store ptr %0, ptr %3, align 8, !tbaa !11
  %4 = load ptr, ptr %3, align 8, !tbaa !11
  %5 = load i8, ptr %4, align 1, !tbaa !93
  %6 = icmp ne i8 %5, 0
  br i1 %6, label %8, label %7

7:                                                ; preds = %1
  store ptr @.str.75, ptr %2, align 8
  br label %16

8:                                                ; preds = %1
  %9 = load i32, ptr @git_gettext_enabled, align 4, !tbaa !4
  %10 = icmp ne i32 %9, 0
  br i1 %10, label %13, label %11

11:                                               ; preds = %8
  %12 = load ptr, ptr %3, align 8, !tbaa !11
  store ptr %12, ptr %2, align 8
  br label %16

13:                                               ; preds = %8
  %14 = load ptr, ptr %3, align 8, !tbaa !11
  %15 = call ptr @dcgettext(ptr noundef null, ptr noundef %14, i32 noundef 5) #11
  store ptr %15, ptr %2, align 8
  br label %16

16:                                               ; preds = %13, %11, %7
  %17 = load ptr, ptr %2, align 8
  ret ptr %17
}

; Function Attrs: nounwind uwtable
define internal i32 @task_option_parse(ptr noundef %0, ptr noundef %1, i32 noundef %2) #0 {
  %4 = alloca i32, align 4
  %5 = alloca ptr, align 8
  %6 = alloca ptr, align 8
  %7 = alloca i32, align 4
  %8 = alloca i32, align 4
  %9 = alloca i32, align 4
  %10 = alloca ptr, align 8
  %11 = alloca i32, align 4
  store ptr %0, ptr %5, align 8, !tbaa !149
  store ptr %1, ptr %6, align 8, !tbaa !11
  store i32 %2, ptr %7, align 4, !tbaa !4
  call void @llvm.lifetime.start.p0(i64 4, ptr %8) #11
  call void @llvm.lifetime.start.p0(i64 4, ptr %9) #11
  store i32 0, ptr %9, align 4, !tbaa !4
  call void @llvm.lifetime.start.p0(i64 8, ptr %10) #11
  store ptr null, ptr %10, align 8, !tbaa !151
  br label %12

12:                                               ; preds = %3
  %13 = load i32, ptr %7, align 4, !tbaa !4
  %14 = icmp ne i32 %13, 0
  br i1 %14, label %15, label %16

15:                                               ; preds = %12
  call void (ptr, i32, ptr, ...) @BUG_fl(ptr noundef @.str.118, i32 noundef 1552, ptr noundef @.str.119) #12
  unreachable

16:                                               ; preds = %12
  br label %17

17:                                               ; preds = %16
  br label %18

18:                                               ; preds = %17
  store i32 0, ptr %8, align 4, !tbaa !4
  br label %19

19:                                               ; preds = %46, %18
  %20 = load i32, ptr %8, align 4, !tbaa !4
  %21 = icmp slt i32 %20, 6
  br i1 %21, label %22, label %49

22:                                               ; preds = %19
  %23 = load i32, ptr %8, align 4, !tbaa !4
  %24 = sext i32 %23 to i64
  %25 = getelementptr inbounds [6 x %struct.maintenance_task], ptr @tasks, i64 0, i64 %24
  %26 = getelementptr inbounds nuw %struct.maintenance_task, ptr %25, i32 0, i32 5
  %27 = load i32, ptr %26, align 8, !tbaa !131
  %28 = icmp sge i32 %27, 0
  br i1 %28, label %29, label %32

29:                                               ; preds = %22
  %30 = load i32, ptr %9, align 4, !tbaa !4
  %31 = add nsw i32 %30, 1
  store i32 %31, ptr %9, align 4, !tbaa !4
  br label %32

32:                                               ; preds = %29, %22
  %33 = load i32, ptr %8, align 4, !tbaa !4
  %34 = sext i32 %33 to i64
  %35 = getelementptr inbounds [6 x %struct.maintenance_task], ptr @tasks, i64 0, i64 %34
  %36 = getelementptr inbounds nuw %struct.maintenance_task, ptr %35, i32 0, i32 0
  %37 = load ptr, ptr %36, align 8, !tbaa !153
  %38 = load ptr, ptr %6, align 8, !tbaa !11
  %39 = call i32 @strcasecmp(ptr noundef %37, ptr noundef %38) #13
  %40 = icmp ne i32 %39, 0
  br i1 %40, label %45, label %41

41:                                               ; preds = %32
  %42 = load i32, ptr %8, align 4, !tbaa !4
  %43 = sext i32 %42 to i64
  %44 = getelementptr inbounds [6 x %struct.maintenance_task], ptr @tasks, i64 0, i64 %43
  store ptr %44, ptr %10, align 8, !tbaa !151
  br label %45

45:                                               ; preds = %41, %32
  br label %46

46:                                               ; preds = %45
  %47 = load i32, ptr %8, align 4, !tbaa !4
  %48 = add nsw i32 %47, 1
  store i32 %48, ptr %8, align 4, !tbaa !4
  br label %19, !llvm.loop !154

49:                                               ; preds = %19
  %50 = load ptr, ptr %10, align 8, !tbaa !151
  %51 = icmp ne ptr %50, null
  br i1 %51, label %57, label %52

52:                                               ; preds = %49
  %53 = call ptr @_(ptr noundef @.str.120)
  %54 = load ptr, ptr %6, align 8, !tbaa !11
  %55 = call i32 (ptr, ...) @error(ptr noundef %53, ptr noundef %54)
  %56 = call i32 @const_error()
  store i32 1, ptr %4, align 4
  store i32 1, ptr %11, align 4
  br label %72

57:                                               ; preds = %49
  %58 = load ptr, ptr %10, align 8, !tbaa !151
  %59 = getelementptr inbounds nuw %struct.maintenance_task, ptr %58, i32 0, i32 5
  %60 = load i32, ptr %59, align 8, !tbaa !131
  %61 = icmp sge i32 %60, 0
  br i1 %61, label %62, label %67

62:                                               ; preds = %57
  %63 = call ptr @_(ptr noundef @.str.121)
  %64 = load ptr, ptr %6, align 8, !tbaa !11
  %65 = call i32 (ptr, ...) @error(ptr noundef %63, ptr noundef %64)
  %66 = call i32 @const_error()
  store i32 1, ptr %4, align 4
  store i32 1, ptr %11, align 4
  br label %72

67:                                               ; preds = %57
  %68 = load i32, ptr %9, align 4, !tbaa !4
  %69 = add nsw i32 %68, 1
  %70 = load ptr, ptr %10, align 8, !tbaa !151
  %71 = getelementptr inbounds nuw %struct.maintenance_task, ptr %70, i32 0, i32 5
  store i32 %69, ptr %71, align 8, !tbaa !131
  store i32 0, ptr %4, align 4
  store i32 1, ptr %11, align 4
  br label %72

72:                                               ; preds = %67, %62, %52
  call void @llvm.lifetime.end.p0(i64 8, ptr %10) #11
  call void @llvm.lifetime.end.p0(i64 4, ptr %9) #11
  call void @llvm.lifetime.end.p0(i64 4, ptr %8) #11
  %73 = load i32, ptr %4, align 4
  ret i32 %73
}