; Function Attrs: nounwind uwtable
define internal range(i32 0, 2) i32 @task_option_parse(ptr readnone captures(none) %0, ptr noundef %1, i32 noundef %2) #0 {
  %.not = icmp eq i32 %2, 0
  br i1 %.not, label %.preheader, label %4

4:                                                ; preds = %3
  tail call void (ptr, i32, ptr, ...) @BUG_fl(ptr noundef nonnull @.str.118, i32 noundef 1552, ptr noundef nonnull @.str.119) #22
  unreachable

.preheader:                                       ; preds = %3, %.preheader
  %indvars.iv = phi i64 [ %indvars.iv.next, %.preheader ], [ 0, %3 ]
  %.025 = phi ptr [ %.1, %.preheader ], [ null, %3 ]
  %.01424 = phi i32 [ %spec.select, %.preheader ], [ 0, %3 ]
  %5 = getelementptr inbounds nuw [6 x %struct.maintenance_task], ptr @tasks, i64 0, i64 %indvars.iv
  %6 = getelementptr inbounds nuw i8, ptr %5, i64 32
  %7 = load i32, ptr %6, align 8, !tbaa !116
  %8 = icmp sgt i32 %7, -1
  %9 = zext i1 %8 to i32
  %spec.select = add nuw nsw i32 %.01424, %9
  %10 = load ptr, ptr %5, align 8, !tbaa !121
  %11 = tail call i32 @strcasecmp(ptr noundef %10, ptr noundef %1) #25
  %.not19 = icmp eq i32 %11, 0
  %.1 = select i1 %.not19, ptr %5, ptr %.025
  %indvars.iv.next = add nuw nsw i64 %indvars.iv, 1
  %exitcond.not = icmp eq i64 %indvars.iv.next, 6
  br i1 %exitcond.not, label %12, label %.preheader, !llvm.loop !140

12:                                               ; preds = %.preheader
  %.not18 = icmp eq ptr %.1, null
  br i1 %.not18, label %13, label %18

13:                                               ; preds = %12
  %14 = load i32, ptr @git_gettext_enabled, align 4, !tbaa !4
  %.not4.i = icmp eq i32 %14, 0
  br i1 %.not4.i, label %_.exit, label %15

15:                                               ; preds = %13
  %16 = tail call ptr @dcgettext(ptr noundef null, ptr noundef nonnull @.str.120, i32 noundef 5) #21
  br label %_.exit

_.exit:                                           ; preds = %13, %15
  %.0.i = phi ptr [ %16, %15 ], [ @.str.120, %13 ]
  %17 = tail call i32 (ptr, ...) @error(ptr noundef %.0.i, ptr noundef %1) #21
  br label %29

18:                                               ; preds = %12
  %19 = getelementptr inbounds nuw i8, ptr %.1, i64 32
  %20 = load i32, ptr %19, align 8, !tbaa !116
  %21 = icmp sgt i32 %20, -1
  br i1 %21, label %22, label %27

22:                                               ; preds = %18
  %23 = load i32, ptr @git_gettext_enabled, align 4, !tbaa !4
  %.not4.i20 = icmp eq i32 %23, 0
  br i1 %.not4.i20, label %_.exit22, label %24

24:                                               ; preds = %22
  %25 = tail call ptr @dcgettext(ptr noundef null, ptr noundef nonnull @.str.121, i32 noundef 5) #21
  br label %_.exit22

_.exit22:                                         ; preds = %22, %24
  %.0.i21 = phi ptr [ %25, %24 ], [ @.str.121, %22 ]
  %26 = tail call i32 (ptr, ...) @error(ptr noundef %.0.i21, ptr noundef %1) #21
  br label %29

27:                                               ; preds = %18
  %28 = add nuw nsw i32 %spec.select, 1
  store i32 %28, ptr %19, align 8, !tbaa !116
  br label %29

29:                                               ; preds = %27, %_.exit22, %_.exit
  %.017 = phi i32 [ 1, %_.exit22 ], [ 0, %27 ], [ 1, %_.exit ]
  ret i32 %.017
}